; Function Attrs: mustprogress noreturn uwtable
define hidden void @_Z15luaG_ordererrorP9lua_StatePK10lua_TValueS3_3TMS(ptr noundef %0, ptr noundef %1, ptr noundef %2, i32 noundef %3) local_unnamed_addr #5 {
  %5 = tail call noundef ptr @_Z16luaT_objtypenameP9lua_StatePK10lua_TValue(ptr noundef %0, ptr noundef %1)
  %6 = tail call noundef ptr @_Z16luaT_objtypenameP9lua_StatePK10lua_TValue(ptr noundef %0, ptr noundef %2)
  %7 = icmp eq i32 %3, 16
  %8 = icmp eq i32 %3, 17
  %.str.6..str.7 = select i1 %8, ptr @.str.6, ptr @.str.7
  %9 = select i1 %7, ptr @.str.5, ptr %.str.6..str.7
  tail call void (ptr, ptr, ...) @_Z14luaG_runerrorLP9lua_StatePKcz(ptr noundef %0, ptr noundef nonnull @.str.8, ptr noundef %5, ptr noundef nonnull %9, ptr noundef %6) #15
  unreachable
}